target datalayout = "e-m:e-p270:32:32-p271:32:32-p272:64:64-i64:64-i128:128-f80:128-n8:16:32:64-S128"
target triple = "x86_64-pc-linux-gnu"

%"class.icu_77::StringPiece" = type <{ ptr, i32, [4 x i8] }>

; Function Attrs: mustprogress nounwind uwtable
define void @_ZN6icu_7711StringPieceC2ERKS0_i(ptr noundef nonnull align 8 dereferenceable(12) %0, ptr noundef nonnull align 8 dereferenceable(12) %1, i32 noundef %2) unnamed_addr #0 align 2 {
  %4 = alloca ptr, align 8
  %5 = alloca ptr, align 8
  %6 = alloca i32, align 4
  store ptr %0, ptr %4, align 8, !tbaa !3
  store ptr %1, ptr %5, align 8, !tbaa !3
  store i32 %2, ptr %6, align 4, !tbaa !14
  %7 = load ptr, ptr %4, align 8
  %8 = load i32, ptr %6, align 4, !tbaa !14
  %9 = icmp slt i32 %8, 0
  br i1 %9, label %10, label %11

10:                                               ; preds = %3
  store i32 0, ptr %6, align 4, !tbaa !14
  br label %22

11:                                               ; preds = %3
  %12 = load i32, ptr %6, align 4, !tbaa !14
  %13 = load ptr, ptr %5, align 8, !tbaa !3
  %14 = getelementptr inbounds nuw %"class.icu_77::StringPiece", ptr %13, i32 0, i32 1
  %15 = load i32, ptr %14, align 8, !tbaa !13
  %16 = icmp sgt i32 %12, %15
  br i1 %16, label %17, label %21

17:                                               ; preds = %11
  %18 = load ptr, ptr %5, align 8, !tbaa !3
  %19 = getelementptr inbounds nuw %"class.icu_77::StringPiece", ptr %18, i32 0, i32 1
  %20 = load i32, ptr %19, align 8, !tbaa !13
  store i32 %20, ptr %6, align 4, !tbaa !14
  br label %21

21:                                               ; preds = %17, %11
  br label %22

22:                                               ; preds = %21, %10
  %23 = load ptr, ptr %5, align 8, !tbaa !3
  %24 = getelementptr inbounds nuw %"class.icu_77::StringPiece", ptr %23, i32 0, i32 0
  %25 = load ptr, ptr %24, align 8, !tbaa !10
  %26 = load i32, ptr %6, align 4, !tbaa !14
  %27 = sext i32 %26 to i64
  %28 = getelementptr inbounds i8, ptr %25, i64 %27
  %29 = getelementptr inbounds nuw %"class.icu_77::StringPiece", ptr %7, i32 0, i32 0
  store ptr %28, ptr %29, align 8, !tbaa !10
  %30 = load ptr, ptr %5, align 8, !tbaa !3
  %31 = getelementptr inbounds nuw %"class.icu_77::StringPiece", ptr %30, i32 0, i32 1
  %32 = load i32, ptr %31, align 8, !tbaa !13
  %33 = load i32, ptr %6, align 4, !tbaa !14
  %34 = sub nsw i32 %32, %33
  %35 = getelementptr inbounds nuw %"class.icu_77::StringPiece", ptr %7, i32 0, i32 1
  store i32 %34, ptr %35, align 8, !tbaa !13
  ret void
}