; Function Attrs: mustprogress nofree norecurse nosync nounwind willreturn memory(argmem: readwrite) uwtable
define void @_ZN6icu_7711StringPieceC2ERKS0_i(ptr noundef nonnull writeonly align 8 captures(none) dereferenceable(12) initializes((0, 12)) %0, ptr noundef nonnull readonly align 8 captures(none) dereferenceable(12) %1, i32 noundef %2) unnamed_addr #2 align 2 {
  %4 = icmp slt i32 %2, 0
  %5 = getelementptr inbounds nuw i8, ptr %1, i64 8
  %6 = load i32, ptr %5, align 8
  %spec.select = tail call i32 @llvm.smin.i32(i32 %2, i32 %6)
  %.0 = select i1 %4, i32 0, i32 %spec.select
  %7 = load ptr, ptr %1, align 8, !tbaa !3
  %8 = sext i32 %.0 to i64
  %9 = getelementptr inbounds i8, ptr %7, i64 %8
  store ptr %9, ptr %0, align 8, !tbaa !3
  %10 = sub nsw i32 %6, %.0
  %11 = getelementptr inbounds nuw i8, ptr %0, i64 8
  store i32 %10, ptr %11, align 8, !tbaa !10
  ret void
}